target datalayout = "e-m:e-p270:32:32-p271:32:32-p272:64:64-i64:64-i128:128-f80:128-n8:16:32:64-S128"
target triple = "x86_64-pc-linux-gnu"

%struct._packet_info = type { ptr, ptr, i32, i32, %struct.nstime_t, %struct.nstime_t, %struct.nstime_t, i8, ptr, ptr, ptr, ptr, %struct._address, %struct._address, %struct._address, %struct._address, %struct._address, %struct._address, i32, ptr, i8, [3 x i8], %struct.anon, i32, i32, i32, i32, ptr, i8, ptr, ptr, i16, i16, i32, i32, i16, i32, i32, ptr, ptr, ptr, i8, i8, i16, i16, i16, i32, i16, i16, ptr, ptr, ptr, ptr, ptr, i32, i32 }
%struct.nstime_t = type { i64, i32 }
%struct._address = type { i32, i32, ptr, ptr }
%struct.anon = type { i8, [3 x i8] }
%struct._asn1_ctx_t = type { i32, i32, i8, ptr, ptr, ptr, ptr, ptr, %struct.anon.0, %struct.anon.3, %struct.anon.4, ptr }
%struct.anon.0 = type { i32, i8, i8, i8, ptr, ptr, i32, i32, ptr, ptr, ptr, %union.anon }
%union.anon = type { %struct.anon.1 }
%struct.anon.1 = type { ptr }
%struct.anon.3 = type { ptr, ptr, ptr }
%struct.anon.4 = type { i32, i8, ptr, i32, i32, ptr, ptr, ptr, %union.anon.5 }
%union.anon.5 = type { %struct.anon.6 }
%struct.anon.6 = type { ptr }

@hf_rnsap_transportLayerAddress_ipv4 = internal global i32 0, align 4
@hf_rnsap_transportLayerAddress_ipv6 = internal global i32 0, align 4
@hf_rnsap_transportLayerAddress_nsap = internal global i32 0, align 4
@ett_rnsap_transportLayerAddress = internal global i32 0, align 4
@ett_rnsap_transportLayerAddress_nsap = internal global i32 0, align 4
@.str.8802 = private unnamed_addr constant [17 x i8] c"Padded NSAP Data\00", align 1

; Function Attrs: null_pointer_is_valid sspstrong uwtable
define internal i32 @dissect_rnsap_TransportLayerAddress(ptr noundef %0, i32 noundef %1, ptr noundef %2, ptr noundef %3, i32 noundef %4) #0 {
  %6 = alloca i32, align 4
  %7 = alloca ptr, align 8
  %8 = alloca i32, align 4
  %9 = alloca ptr, align 8
  %10 = alloca ptr, align 8
  %11 = alloca i32, align 4
  %12 = alloca ptr, align 8
  %13 = alloca ptr, align 8
  %14 = alloca ptr, align 8
  %15 = alloca ptr, align 8
  %16 = alloca ptr, align 8
  %17 = alloca ptr, align 8
  %18 = alloca i32, align 4
  %19 = alloca i32, align 4
  store ptr %0, ptr %7, align 8
  store i32 %1, ptr %8, align 4
  store ptr %2, ptr %9, align 8
  store ptr %3, ptr %10, align 8
  store i32 %4, ptr %11, align 4
  call void @llvm.lifetime.start.p0(i64 8, ptr %12) #4
  store ptr null, ptr %12, align 8
  call void @llvm.lifetime.start.p0(i64 8, ptr %13) #4
  call void @llvm.lifetime.start.p0(i64 8, ptr %14) #4
  call void @llvm.lifetime.start.p0(i64 8, ptr %15) #4
  call void @llvm.lifetime.start.p0(i64 8, ptr %16) #4
  call void @llvm.lifetime.start.p0(i64 8, ptr %17) #4
  call void @llvm.lifetime.start.p0(i64 4, ptr %18) #4
  %20 = load ptr, ptr %7, align 8
  %21 = load i32, ptr %8, align 4
  %22 = load ptr, ptr %9, align 8
  %23 = load ptr, ptr %10, align 8
  %24 = load i32, ptr %11, align 4
  %25 = call i32 @dissect_per_bit_string(ptr noundef %20, i32 noundef %21, ptr noundef %22, ptr noundef %23, i32 noundef %24, i32 noundef 1, i32 noundef 160, i1 noundef zeroext true, ptr noundef null, i32 noundef 0, ptr noundef %12, ptr noundef null)
  store i32 %25, ptr %8, align 4
  %26 = load ptr, ptr %12, align 8
  %27 = icmp ne ptr %26, null
  br i1 %27, label %30, label %28

28:                                               ; preds = %5
  %29 = load i32, ptr %8, align 4
  store i32 %29, ptr %6, align 4
  store i32 1, ptr %19, align 4
  br label %98

30:                                               ; preds = %5
  %31 = load ptr, ptr %12, align 8
  %32 = call i32 @tvb_reported_length(ptr noundef %31)
  store i32 %32, ptr %18, align 4
  %33 = load ptr, ptr %9, align 8
  %34 = getelementptr inbounds nuw %struct._asn1_ctx_t, ptr %33, i32 0, i32 4
  %35 = load ptr, ptr %34, align 8
  %36 = load i32, ptr @ett_rnsap_transportLayerAddress, align 4
  %37 = call ptr @proto_item_add_subtree(ptr noundef %35, i32 noundef %36)
  store ptr %37, ptr %14, align 8
  %38 = load i32, ptr %18, align 4
  %39 = icmp eq i32 %38, 4
  br i1 %39, label %40, label %46

40:                                               ; preds = %30
  %41 = load ptr, ptr %14, align 8
  %42 = load i32, ptr @hf_rnsap_transportLayerAddress_ipv4, align 4
  %43 = load ptr, ptr %12, align 8
  %44 = load i32, ptr %18, align 4
  %45 = call ptr @proto_tree_add_item(ptr noundef %41, i32 noundef %42, ptr noundef %43, i32 noundef 0, i32 noundef %44, i32 noundef 0)
  br label %46

46:                                               ; preds = %40, %30
  %47 = load i32, ptr %18, align 4
  %48 = icmp eq i32 %47, 16
  br i1 %48, label %49, label %55

49:                                               ; preds = %46
  %50 = load ptr, ptr %14, align 8
  %51 = load i32, ptr @hf_rnsap_transportLayerAddress_ipv6, align 4
  %52 = load ptr, ptr %12, align 8
  %53 = load i32, ptr %18, align 4
  %54 = call ptr @proto_tree_add_item(ptr noundef %50, i32 noundef %51, ptr noundef %52, i32 noundef 0, i32 noundef %53, i32 noundef 0)
  br label %55

55:                                               ; preds = %49, %46
  %56 = load i32, ptr %18, align 4
  %57 = icmp eq i32 %56, 20
  br i1 %57, label %61, label %58

58:                                               ; preds = %55
  %59 = load i32, ptr %18, align 4
  %60 = icmp eq i32 %59, 7
  br i1 %60, label %61, label %96

61:                                               ; preds = %58, %55
  %62 = load i32, ptr %18, align 4
  %63 = icmp eq i32 %62, 7
  br i1 %63, label %64, label %83

64:                                               ; preds = %61
  %65 = load ptr, ptr %9, align 8
  %66 = getelementptr inbounds nuw %struct._asn1_ctx_t, ptr %65, i32 0, i32 3
  %67 = load ptr, ptr %66, align 8
  %68 = getelementptr inbounds nuw %struct._packet_info, ptr %67, i32 0, i32 51
  %69 = load ptr, ptr %68, align 8
  %70 = call noalias ptr @wmem_alloc0(ptr noundef %69, i64 noundef 20) #5
  store ptr %70, ptr %16, align 8
  %71 = load ptr, ptr %12, align 8
  %72 = load ptr, ptr %16, align 8
  %73 = load i32, ptr %18, align 4
  %74 = sext i32 %73 to i64
  %75 = call ptr @tvb_memcpy(ptr noundef %71, ptr noundef %72, i32 noundef 0, i64 noundef %74)
  %76 = load ptr, ptr %7, align 8
  %77 = load ptr, ptr %16, align 8
  %78 = call ptr @tvb_new_child_real_data(ptr noundef %76, ptr noundef %77, i32 noundef 20, i32 noundef 20)
  store ptr %78, ptr %17, align 8
  %79 = load ptr, ptr %9, align 8
  %80 = getelementptr inbounds nuw %struct._asn1_ctx_t, ptr %79, i32 0, i32 3
  %81 = load ptr, ptr %80, align 8
  %82 = load ptr, ptr %17, align 8
  call void @add_new_data_source(ptr noundef %81, ptr noundef %82, ptr noundef @.str.8802)
  br label %85

83:                                               ; preds = %61
  %84 = load ptr, ptr %12, align 8
  store ptr %84, ptr %17, align 8
  br label %85

85:                                               ; preds = %83, %64
  %86 = load ptr, ptr %14, align 8
  %87 = load i32, ptr @hf_rnsap_transportLayerAddress_nsap, align 4
  %88 = load ptr, ptr %12, align 8
  %89 = load i32, ptr %18, align 4
  %90 = call ptr @proto_tree_add_item(ptr noundef %86, i32 noundef %87, ptr noundef %88, i32 noundef 0, i32 noundef %89, i32 noundef 0)
  store ptr %90, ptr %13, align 8
  %91 = load ptr, ptr %13, align 8
  %92 = load i32, ptr @ett_rnsap_transportLayerAddress_nsap, align 4
  %93 = call ptr @proto_item_add_subtree(ptr noundef %91, i32 noundef %92)
  store ptr %93, ptr %15, align 8
  %94 = load ptr, ptr %17, align 8
  %95 = load ptr, ptr %15, align 8
  call void @dissect_nsap(ptr noundef %94, i32 noundef 0, i32 noundef 20, ptr noundef %95)
  br label %96

96:                                               ; preds = %85, %58
  %97 = load i32, ptr %8, align 4
  store i32 %97, ptr %6, align 4
  store i32 1, ptr %19, align 4
  br label %98

98:                                               ; preds = %96, %28
  call void @llvm.lifetime.end.p0(i64 4, ptr %18) #4
  call void @llvm.lifetime.end.p0(i64 8, ptr %17) #4
  call void @llvm.lifetime.end.p0(i64 8, ptr %16) #4
  call void @llvm.lifetime.end.p0(i64 8, ptr %15) #4
  call void @llvm.lifetime.end.p0(i64 8, ptr %14) #4
  call void @llvm.lifetime.end.p0(i64 8, ptr %13) #4
  call void @llvm.lifetime.end.p0(i64 8, ptr %12) #4
  %99 = load i32, ptr %6, align 4
  ret i32 %99
}