; Function Attrs: null_pointer_is_valid sspstrong uwtable
define internal i32 @dissect_rnsap_TransportLayerAddress(ptr noundef %0, i32 noundef %1, ptr noundef %2, ptr noundef %3, i32 noundef %4) #0 {
  %6 = alloca ptr, align 8
  call void @llvm.lifetime.start.p0(i64 8, ptr nonnull %6) #4
  store ptr null, ptr %6, align 8
  %7 = call i32 @dissect_per_bit_string(ptr noundef %0, i32 noundef %1, ptr noundef %2, ptr noundef %3, i32 noundef %4, i32 noundef 1, i32 noundef 160, i1 noundef zeroext true, ptr noundef null, i32 noundef 0, ptr noundef nonnull %6, ptr noundef null)
  %8 = load ptr, ptr %6, align 8
  %.not = icmp eq ptr %8, null
  br i1 %.not, label %.thread, label %9

9:                                                ; preds = %5
  %10 = call i32 @tvb_reported_length(ptr noundef nonnull %8)
  %11 = getelementptr inbounds nuw i8, ptr %2, i64 24
  %12 = load ptr, ptr %11, align 8
  %13 = load i32, ptr @ett_rnsap_transportLayerAddress, align 4
  %14 = call ptr @proto_item_add_subtree(ptr noundef %12, i32 noundef %13)
  switch i32 %10, label %.thread [
    i32 4, label %15
    i32 16, label %19
    i32 7, label %23
    i32 20, label %33
  ]

15:                                               ; preds = %9
  %16 = load i32, ptr @hf_rnsap_transportLayerAddress_ipv4, align 4
  %17 = load ptr, ptr %6, align 8
  %18 = call ptr @proto_tree_add_item(ptr noundef %14, i32 noundef %16, ptr noundef %17, i32 noundef 0, i32 noundef 4, i32 noundef 0)
  br label %.thread

19:                                               ; preds = %9
  %20 = load i32, ptr @hf_rnsap_transportLayerAddress_ipv6, align 4
  %21 = load ptr, ptr %6, align 8
  %22 = call ptr @proto_tree_add_item(ptr noundef %14, i32 noundef %20, ptr noundef %21, i32 noundef 0, i32 noundef 16, i32 noundef 0)
  br label %.thread

23:                                               ; preds = %9
  %24 = getelementptr inbounds nuw i8, ptr %2, i64 16
  %25 = load ptr, ptr %24, align 8
  %26 = getelementptr inbounds nuw i8, ptr %25, i64 408
  %27 = load ptr, ptr %26, align 8
  %28 = call noalias dereferenceable_or_null(20) ptr @wmem_alloc0(ptr noundef %27, i64 noundef 20) #5
  %29 = load ptr, ptr %6, align 8
  %30 = call ptr @tvb_memcpy(ptr noundef %29, ptr noundef %28, i32 noundef 0, i64 noundef 7)
  %31 = call ptr @tvb_new_child_real_data(ptr noundef %0, ptr noundef %28, i32 noundef 20, i32 noundef 20)
  %32 = load ptr, ptr %24, align 8
  call void @add_new_data_source(ptr noundef %32, ptr noundef %31, ptr noundef nonnull @.str.8802)
  %.pre = load ptr, ptr %6, align 8
  br label %35

33:                                               ; preds = %9
  %34 = load ptr, ptr %6, align 8
  br label %35

35:                                               ; preds = %33, %23
  %36 = phi ptr [ %.pre, %23 ], [ %34, %33 ]
  %.030 = phi ptr [ %31, %23 ], [ %34, %33 ]
  %37 = load i32, ptr @hf_rnsap_transportLayerAddress_nsap, align 4
  %38 = call ptr @proto_tree_add_item(ptr noundef %14, i32 noundef %37, ptr noundef %36, i32 noundef 0, i32 noundef %10, i32 noundef 0)
  %39 = load i32, ptr @ett_rnsap_transportLayerAddress_nsap, align 4
  %40 = call ptr @proto_item_add_subtree(ptr noundef %38, i32 noundef %39)
  call void @dissect_nsap(ptr noundef %.030, i32 noundef 0, i32 noundef 20, ptr noundef %40)
  br label %.thread

.thread:                                          ; preds = %9, %19, %15, %35, %5
  call void @llvm.lifetime.end.p0(i64 8, ptr nonnull %6) #4
  ret i32 %7
}